target datalayout = "e-m:e-p270:32:32-p271:32:32-p272:64:64-i64:64-i128:128-f80:128-n8:16:32:64-S128"
target triple = "x86_64-pc-linux-gnu"

%struct.H5G_node_key_t = type { i64 }
%struct.H5B_shared_t = type { ptr, i32, i64, i64, i64, i64, i64, ptr, ptr, ptr }

@H5G_init_g = external global i8, align 1
@H5_libterm_g = external global i8, align 1

; Function Attrs: nounwind uwtable
define internal i32 @H5G__node_encode_key(ptr noundef %0, ptr noundef %1, ptr noundef %2) #0 {
  %4 = alloca ptr, align 8
  %5 = alloca ptr, align 8
  %6 = alloca ptr, align 8
  %7 = alloca ptr, align 8
  %8 = alloca i64, align 8
  %9 = alloca i64, align 8
  %10 = alloca ptr, align 8
  store ptr %0, ptr %4, align 8, !tbaa !92
  store ptr %1, ptr %5, align 8, !tbaa !41
  store ptr %2, ptr %6, align 8, !tbaa !8
  call void @llvm.lifetime.start.p0(i64 8, ptr %7) #8
  %11 = load ptr, ptr %6, align 8, !tbaa !8
  store ptr %11, ptr %7, align 8, !tbaa !17
  %12 = load i8, ptr @H5G_init_g, align 1, !tbaa !9, !range !11, !noundef !12
  %13 = trunc i8 %12 to i1
  br i1 %13, label %18, label %14

14:                                               ; preds = %3
  %15 = load i8, ptr @H5_libterm_g, align 1, !tbaa !9, !range !11, !noundef !12
  %16 = trunc i8 %15 to i1
  %17 = xor i1 %16, true
  br label %18

18:                                               ; preds = %14, %3
  %19 = phi i1 [ true, %3 ], [ %17, %14 ]
  %20 = xor i1 %19, true
  %21 = xor i1 %20, true
  %22 = zext i1 %21 to i32
  %23 = sext i32 %22 to i64
  %24 = call i64 @llvm.expect.i64(i64 %23, i64 1)
  %25 = icmp ne i64 %24, 0
  br i1 %25, label %26, label %132

26:                                               ; preds = %18
  br label %27

27:                                               ; preds = %26
  %28 = load ptr, ptr %4, align 8, !tbaa !92
  %29 = getelementptr inbounds nuw %struct.H5B_shared_t, ptr %28, i32 0, i32 6
  %30 = load i64, ptr %29, align 8, !tbaa !94
  switch i64 %30, label %128 [
    i64 4, label %31
    i64 8, label %70
    i64 2, label %105
  ]

31:                                               ; preds = %27
  br label %32

32:                                               ; preds = %31
  %33 = load ptr, ptr %7, align 8, !tbaa !17
  %34 = getelementptr inbounds nuw %struct.H5G_node_key_t, ptr %33, i32 0, i32 0
  %35 = load i64, ptr %34, align 8, !tbaa !33
  %36 = and i64 %35, 255
  %37 = trunc i64 %36 to i8
  %38 = load ptr, ptr %5, align 8, !tbaa !41
  store i8 %37, ptr %38, align 1, !tbaa !85
  %39 = load ptr, ptr %5, align 8, !tbaa !41
  %40 = getelementptr inbounds nuw i8, ptr %39, i32 1
  store ptr %40, ptr %5, align 8, !tbaa !41
  %41 = load ptr, ptr %7, align 8, !tbaa !17
  %42 = getelementptr inbounds nuw %struct.H5G_node_key_t, ptr %41, i32 0, i32 0
  %43 = load i64, ptr %42, align 8, !tbaa !33
  %44 = lshr i64 %43, 8
  %45 = and i64 %44, 255
  %46 = trunc i64 %45 to i8
  %47 = load ptr, ptr %5, align 8, !tbaa !41
  store i8 %46, ptr %47, align 1, !tbaa !85
  %48 = load ptr, ptr %5, align 8, !tbaa !41
  %49 = getelementptr inbounds nuw i8, ptr %48, i32 1
  store ptr %49, ptr %5, align 8, !tbaa !41
  %50 = load ptr, ptr %7, align 8, !tbaa !17
  %51 = getelementptr inbounds nuw %struct.H5G_node_key_t, ptr %50, i32 0, i32 0
  %52 = load i64, ptr %51, align 8, !tbaa !33
  %53 = lshr i64 %52, 16
  %54 = and i64 %53, 255
  %55 = trunc i64 %54 to i8
  %56 = load ptr, ptr %5, align 8, !tbaa !41
  store i8 %55, ptr %56, align 1, !tbaa !85
  %57 = load ptr, ptr %5, align 8, !tbaa !41
  %58 = getelementptr inbounds nuw i8, ptr %57, i32 1
  store ptr %58, ptr %5, align 8, !tbaa !41
  %59 = load ptr, ptr %7, align 8, !tbaa !17
  %60 = getelementptr inbounds nuw %struct.H5G_node_key_t, ptr %59, i32 0, i32 0
  %61 = load i64, ptr %60, align 8, !tbaa !33
  %62 = lshr i64 %61, 24
  %63 = and i64 %62, 255
  %64 = trunc i64 %63 to i8
  %65 = load ptr, ptr %5, align 8, !tbaa !41
  store i8 %64, ptr %65, align 1, !tbaa !85
  %66 = load ptr, ptr %5, align 8, !tbaa !41
  %67 = getelementptr inbounds nuw i8, ptr %66, i32 1
  store ptr %67, ptr %5, align 8, !tbaa !41
  br label %68

68:                                               ; preds = %32
  br label %69

69:                                               ; preds = %68
  br label %129

70:                                               ; preds = %27
  br label %71

71:                                               ; preds = %70
  call void @llvm.lifetime.start.p0(i64 8, ptr %8) #8
  %72 = load ptr, ptr %7, align 8, !tbaa !17
  %73 = getelementptr inbounds nuw %struct.H5G_node_key_t, ptr %72, i32 0, i32 0
  %74 = load i64, ptr %73, align 8, !tbaa !33
  store i64 %74, ptr %8, align 8, !tbaa !21
  call void @llvm.lifetime.start.p0(i64 8, ptr %9) #8
  call void @llvm.lifetime.start.p0(i64 8, ptr %10) #8
  %75 = load ptr, ptr %5, align 8, !tbaa !41
  store ptr %75, ptr %10, align 8, !tbaa !41
  store i64 0, ptr %9, align 8, !tbaa !21
  br label %76

76:                                               ; preds = %85, %71
  %77 = load i64, ptr %9, align 8, !tbaa !21
  %78 = icmp ult i64 %77, 8
  br i1 %78, label %79, label %90

79:                                               ; preds = %76
  %80 = load i64, ptr %8, align 8, !tbaa !21
  %81 = and i64 %80, 255
  %82 = trunc i64 %81 to i8
  %83 = load ptr, ptr %10, align 8, !tbaa !41
  %84 = getelementptr inbounds nuw i8, ptr %83, i32 1
  store ptr %84, ptr %10, align 8, !tbaa !41
  store i8 %82, ptr %83, align 1, !tbaa !85
  br label %85

85:                                               ; preds = %79
  %86 = load i64, ptr %9, align 8, !tbaa !21
  %87 = add i64 %86, 1
  store i64 %87, ptr %9, align 8, !tbaa !21
  %88 = load i64, ptr %8, align 8, !tbaa !21
  %89 = lshr i64 %88, 8
  store i64 %89, ptr %8, align 8, !tbaa !21
  br label %76, !llvm.loop !98

90:                                               ; preds = %76
  br label %91

91:                                               ; preds = %97, %90
  %92 = load i64, ptr %9, align 8, !tbaa !21
  %93 = icmp ult i64 %92, 8
  br i1 %93, label %94, label %100

94:                                               ; preds = %91
  %95 = load ptr, ptr %10, align 8, !tbaa !41
  %96 = getelementptr inbounds nuw i8, ptr %95, i32 1
  store ptr %96, ptr %10, align 8, !tbaa !41
  store i8 0, ptr %95, align 1, !tbaa !85
  br label %97

97:                                               ; preds = %94
  %98 = load i64, ptr %9, align 8, !tbaa !21
  %99 = add i64 %98, 1
  store i64 %99, ptr %9, align 8, !tbaa !21
  br label %91, !llvm.loop !99

100:                                              ; preds = %91
  %101 = load ptr, ptr %5, align 8, !tbaa !41
  %102 = getelementptr inbounds i8, ptr %101, i64 8
  store ptr %102, ptr %5, align 8, !tbaa !41
  call void @llvm.lifetime.end.p0(i64 8, ptr %10) #8
  call void @llvm.lifetime.end.p0(i64 8, ptr %9) #8
  call void @llvm.lifetime.end.p0(i64 8, ptr %8) #8
  br label %103

103:                                              ; preds = %100
  br label %104

104:                                              ; preds = %103
  br label %129

105:                                              ; preds = %27
  br label %106

106:                                              ; preds = %105
  %107 = load ptr, ptr %7, align 8, !tbaa !17
  %108 = getelementptr inbounds nuw %struct.H5G_node_key_t, ptr %107, i32 0, i32 0
  %109 = load i64, ptr %108, align 8, !tbaa !33
  %110 = trunc i64 %109 to i32
  %111 = and i32 %110, 255
  %112 = trunc i32 %111 to i8
  %113 = load ptr, ptr %5, align 8, !tbaa !41
  store i8 %112, ptr %113, align 1, !tbaa !85
  %114 = load ptr, ptr %5, align 8, !tbaa !41
  %115 = getelementptr inbounds nuw i8, ptr %114, i32 1
  store ptr %115, ptr %5, align 8, !tbaa !41
  %116 = load ptr, ptr %7, align 8, !tbaa !17
  %117 = getelementptr inbounds nuw %struct.H5G_node_key_t, ptr %116, i32 0, i32 0
  %118 = load i64, ptr %117, align 8, !tbaa !33
  %119 = trunc i64 %118 to i32
  %120 = lshr i32 %119, 8
  %121 = and i32 %120, 255
  %122 = trunc i32 %121 to i8
  %123 = load ptr, ptr %5, align 8, !tbaa !41
  store i8 %122, ptr %123, align 1, !tbaa !85
  %124 = load ptr, ptr %5, align 8, !tbaa !41
  %125 = getelementptr inbounds nuw i8, ptr %124, i32 1
  store ptr %125, ptr %5, align 8, !tbaa !41
  br label %126

126:                                              ; preds = %106
  br label %127

127:                                              ; preds = %126
  br label %129

128:                                              ; preds = %27
  br label %129

129:                                              ; preds = %128, %127, %104, %69
  br label %130

130:                                              ; preds = %129
  br label %131

131:                                              ; preds = %130
  br label %132

132:                                              ; preds = %131, %18
  call void @llvm.lifetime.end.p0(i64 8, ptr %7) #8
  ret i32 0
}