; Function Attrs: nofree norecurse nosync nounwind memory(read, argmem: readwrite, inaccessiblemem: none) uwtable
define internal noundef i32 @H5G__node_encode_key(ptr noundef readonly captures(none) %0, ptr noundef writeonly captures(none) %1, ptr noundef readonly captures(none) %2) #1 {
  %4 = load i8, ptr @H5G_init_g, align 1, !tbaa !3, !range !7, !noundef !8
  %5 = trunc nuw i8 %4 to i1
  %6 = load i8, ptr @H5_libterm_g, align 1, !range !7
  %7 = trunc nuw i8 %6 to i1
  %8 = xor i1 %7, true
  %9 = select i1 %5, i1 true, i1 %8
  br i1 %9, label %10, label %.loopexit, !prof !9

10:                                               ; preds = %3
  %11 = getelementptr inbounds nuw i8, ptr %0, i64 48
  %12 = load i64, ptr %11, align 8, !tbaa !74
  switch i64 %12, label %.loopexit [
    i64 4, label %13
    i64 8, label %24
    i64 2, label %31
  ]

13:                                               ; preds = %10
  %14 = load i64, ptr %2, align 8, !tbaa !25
  %15 = trunc i64 %14 to i8
  store i8 %15, ptr %1, align 1, !tbaa !66
  %16 = getelementptr inbounds nuw i8, ptr %1, i64 1
  %17 = load i64, ptr %2, align 8, !tbaa !25
  %18 = lshr i64 %17, 8
  %19 = trunc i64 %18 to i8
  store i8 %19, ptr %16, align 1, !tbaa !66
  %20 = getelementptr inbounds nuw i8, ptr %1, i64 2
  %21 = load i64, ptr %2, align 8, !tbaa !25
  %22 = lshr i64 %21, 16
  %23 = trunc i64 %22 to i8
  store i8 %23, ptr %20, align 1, !tbaa !66
  br label %.loopexit.sink.split

24:                                               ; preds = %10
  %25 = load i64, ptr %2, align 8, !tbaa !25
  br label %26

26:                                               ; preds = %24, %26
  %.035 = phi ptr [ %1, %24 ], [ %28, %26 ]
  %.03034 = phi i64 [ 0, %24 ], [ %29, %26 ]
  %.03233 = phi i64 [ %25, %24 ], [ %30, %26 ]
  %27 = trunc i64 %.03233 to i8
  %28 = getelementptr inbounds nuw i8, ptr %.035, i64 1
  store i8 %27, ptr %.035, align 1, !tbaa !66
  %29 = add nuw nsw i64 %.03034, 1
  %30 = lshr i64 %.03233, 8
  %exitcond.not = icmp eq i64 %29, 8
  br i1 %exitcond.not, label %.loopexit, label %26, !llvm.loop !78

31:                                               ; preds = %10
  %32 = load i64, ptr %2, align 8, !tbaa !25
  %33 = trunc i64 %32 to i8
  store i8 %33, ptr %1, align 1, !tbaa !66
  br label %.loopexit.sink.split

.loopexit.sink.split:                             ; preds = %31, %13
  %.sink = phi i64 [ 3, %13 ], [ 1, %31 ]
  %.sink38 = phi i64 [ 24, %13 ], [ 8, %31 ]
  %34 = getelementptr inbounds nuw i8, ptr %1, i64 %.sink
  %35 = load i64, ptr %2, align 8, !tbaa !25
  %36 = lshr i64 %35, %.sink38
  %37 = trunc i64 %36 to i8
  store i8 %37, ptr %34, align 1, !tbaa !66
  br label %.loopexit

.loopexit:                                        ; preds = %26, %.loopexit.sink.split, %10, %3
  ret i32 0
}